target datalayout = "e-m:e-p270:32:32-p271:32:32-p272:64:64-i64:64-i128:128-f80:128-n8:16:32:64-S128"
target triple = "x86_64-pc-linux-gnu"

%struct.mac_nr_info = type { i8, i8, i8, i16, i16, i8, i8, i32, i16, i16, i16 }

@proto_mac_nr = hidden global i32 0, align 4
@.str.561 = private unnamed_addr constant [7 x i8] c"mac-nr\00", align 1

; Function Attrs: nounwind uwtable
define internal i32 @dissect_mac_nr_heur(ptr noundef %0, ptr noundef %1, ptr noundef %2, ptr noundef %3) #0 {
  %5 = alloca i32, align 4
  %6 = alloca ptr, align 8
  %7 = alloca ptr, align 8
  %8 = alloca ptr, align 8
  %9 = alloca ptr, align 8
  %10 = alloca i32, align 4
  %11 = alloca ptr, align 8
  %12 = alloca ptr, align 8
  store ptr %0, ptr %6, align 8
  store ptr %1, ptr %7, align 8
  store ptr %2, ptr %8, align 8
  store ptr %3, ptr %9, align 8
  store i32 0, ptr %10, align 4
  %13 = load ptr, ptr %6, align 8
  %14 = load i32, ptr %10, align 4
  %15 = call i32 @tvb_captured_length_remaining(ptr noundef %13, i32 noundef %14)
  %16 = icmp slt i32 %15, 11
  br i1 %16, label %17, label %18

17:                                               ; preds = %4
  store i32 0, ptr %5, align 4
  br label %64

18:                                               ; preds = %4
  %19 = load ptr, ptr %6, align 8
  %20 = load i32, ptr %10, align 4
  %21 = call i32 @tvb_strneql(ptr noundef %19, i32 noundef %20, ptr noundef @.str.561, i64 noundef 6)
  %22 = icmp ne i32 %21, 0
  br i1 %22, label %23, label %24

23:                                               ; preds = %18
  store i32 0, ptr %5, align 4
  br label %64

24:                                               ; preds = %18
  %25 = load i32, ptr %10, align 4
  %26 = add i32 %25, 6
  store i32 %26, ptr %10, align 4
  %27 = call ptr @wmem_file_scope()
  %28 = load ptr, ptr %7, align 8
  %29 = load i32, ptr @proto_mac_nr, align 4
  %30 = call ptr @p_get_proto_data(ptr noundef %27, ptr noundef %28, i32 noundef %29, i32 noundef 0)
  store ptr %30, ptr %11, align 8
  %31 = load ptr, ptr %11, align 8
  %32 = icmp eq ptr %31, null
  br i1 %32, label %33, label %48

33:                                               ; preds = %24
  %34 = call ptr @wmem_file_scope()
  %35 = call noalias ptr @wmem_alloc0(ptr noundef %34, i64 noundef 24)
  store ptr %35, ptr %11, align 8
  %36 = load ptr, ptr %11, align 8
  %37 = load ptr, ptr %6, align 8
  %38 = load ptr, ptr %7, align 8
  %39 = load ptr, ptr %8, align 8
  %40 = call i32 @dissect_mac_nr_context_fields(ptr noundef %36, ptr noundef %37, ptr noundef %38, ptr noundef %39, ptr noundef %10)
  %41 = icmp ne i32 %40, 0
  br i1 %41, label %43, label %42

42:                                               ; preds = %33
  store i32 1, ptr %5, align 4
  br label %64

43:                                               ; preds = %33
  %44 = call ptr @wmem_file_scope()
  %45 = load ptr, ptr %7, align 8
  %46 = load i32, ptr @proto_mac_nr, align 4
  %47 = load ptr, ptr %11, align 8
  call void @p_add_proto_data(ptr noundef %44, ptr noundef %45, i32 noundef %46, i32 noundef 0, ptr noundef %47)
  br label %56

48:                                               ; preds = %24
  %49 = load ptr, ptr %6, align 8
  %50 = call i32 @tvb_reported_length(ptr noundef %49)
  %51 = load ptr, ptr %11, align 8
  %52 = getelementptr inbounds %struct.mac_nr_info, ptr %51, i32 0, i32 10
  %53 = load i16, ptr %52, align 4
  %54 = zext i16 %53 to i32
  %55 = sub i32 %50, %54
  store i32 %55, ptr %10, align 4
  br label %56

56:                                               ; preds = %48, %43
  %57 = load ptr, ptr %6, align 8
  %58 = load i32, ptr %10, align 4
  %59 = call ptr @tvb_new_subset_remaining(ptr noundef %57, i32 noundef %58)
  store ptr %59, ptr %12, align 8
  %60 = load ptr, ptr %12, align 8
  %61 = load ptr, ptr %7, align 8
  %62 = load ptr, ptr %8, align 8
  %63 = call i32 @dissect_mac_nr(ptr noundef %60, ptr noundef %61, ptr noundef %62, ptr noundef null)
  store i32 1, ptr %5, align 4
  br label %64

64:                                               ; preds = %56, %42, %23, %17
  %65 = load i32, ptr %5, align 4
  ret i32 %65
}