; Function Attrs: nounwind uwtable
define internal range(i32 0, 2) i32 @dissect_mac_nr_heur(ptr noundef %0, ptr noundef %1, ptr noundef %2, ptr readnone captures(none) %3) #0 {
  %5 = alloca i32, align 4
  %6 = tail call i32 @tvb_captured_length_remaining(ptr noundef %0, i32 noundef 0) #12
  %7 = icmp slt i32 %6, 11
  br i1 %7, label %31, label %8

8:                                                ; preds = %4
  %9 = tail call i32 @tvb_strneql(ptr noundef %0, i32 noundef 0, ptr noundef nonnull @.str.561, i64 noundef 6) #12
  %.not = icmp eq i32 %9, 0
  br i1 %.not, label %10, label %31

10:                                               ; preds = %8
  store i32 6, ptr %5, align 4
  %11 = tail call ptr @wmem_file_scope() #12
  %12 = load i32, ptr @proto_mac_nr, align 4
  %13 = tail call ptr @p_get_proto_data(ptr noundef %11, ptr noundef %1, i32 noundef %12, i32 noundef 0) #12
  %14 = icmp eq ptr %13, null
  br i1 %14, label %15, label %21

15:                                               ; preds = %10
  %16 = tail call ptr @wmem_file_scope() #12
  %17 = tail call noalias ptr @wmem_alloc0(ptr noundef %16, i64 noundef 24) #12
  %18 = call i32 @dissect_mac_nr_context_fields(ptr noundef %17, ptr noundef %0, ptr noundef %1, ptr noundef %2, ptr noundef nonnull %5)
  %19 = tail call ptr @wmem_file_scope() #12
  %20 = load i32, ptr @proto_mac_nr, align 4
  tail call void @p_add_proto_data(ptr noundef %19, ptr noundef %1, i32 noundef %20, i32 noundef 0, ptr noundef %17) #12
  %.pre = load i32, ptr %5, align 4
  br label %27

21:                                               ; preds = %10
  %22 = tail call i32 @tvb_reported_length(ptr noundef %0) #12
  %23 = getelementptr inbounds nuw i8, ptr %13, i64 20
  %24 = load i16, ptr %23, align 4
  %25 = zext i16 %24 to i32
  %26 = sub i32 %22, %25
  br label %27

27:                                               ; preds = %21, %15
  %28 = phi i32 [ %26, %21 ], [ %.pre, %15 ]
  %29 = tail call ptr @tvb_new_subset_remaining(ptr noundef %0, i32 noundef %28) #12
  %30 = tail call i32 @dissect_mac_nr(ptr noundef %29, ptr noundef %1, ptr noundef %2, ptr poison)
  br label %31

31:                                               ; preds = %8, %4, %27
  %.0 = phi i32 [ 1, %27 ], [ 0, %4 ], [ 0, %8 ]
  ret i32 %.0
}